target datalayout = "e-m:e-p270:32:32-p271:32:32-p272:64:64-i64:64-i128:128-f80:128-n8:16:32:64-S128"
target triple = "x86_64-pc-linux-gnu"

%struct.ossl_cmp_msg_st = type { ptr, ptr, ptr, ptr, ptr, ptr }
%struct.ossl_cmp_pkiheader_st = type { ptr, ptr, ptr, ptr, ptr, ptr, ptr, ptr, ptr, ptr, ptr, ptr }

@.str = private unnamed_addr constant [32 x i8] c"../openssl/crypto/cmp/cmp_msg.c\00", align 1
@__func__.OSSL_CMP_MSG_update_transactionID = private unnamed_addr constant [34 x i8] c"OSSL_CMP_MSG_update_transactionID\00", align 1

; Function Attrs: nounwind uwtable
define i32 @OSSL_CMP_MSG_update_transactionID(ptr noundef %0, ptr noundef %1) #0 {
  %3 = alloca i32, align 4
  %4 = alloca ptr, align 8
  %5 = alloca ptr, align 8
  store ptr %0, ptr %4, align 8, !tbaa !34
  store ptr %1, ptr %5, align 8, !tbaa !10
  %6 = load ptr, ptr %4, align 8, !tbaa !34
  %7 = icmp eq ptr %6, null
  br i1 %7, label %11, label %8

8:                                                ; preds = %2
  %9 = load ptr, ptr %5, align 8, !tbaa !10
  %10 = icmp eq ptr %9, null
  br i1 %10, label %11, label %12

11:                                               ; preds = %8, %2
  call void @ERR_new()
  call void @ERR_set_debug(ptr noundef @.str, i32 noundef 1179, ptr noundef @__func__.OSSL_CMP_MSG_update_transactionID)
  call void (i32, i32, ptr, ...) @ERR_set_error(i32 noundef 58, i32 noundef 103, ptr noundef null)
  store i32 0, ptr %3, align 4
  br label %35

12:                                               ; preds = %8
  %13 = load ptr, ptr %4, align 8, !tbaa !34
  %14 = load ptr, ptr %5, align 8, !tbaa !10
  %15 = getelementptr inbounds nuw %struct.ossl_cmp_msg_st, ptr %14, i32 0, i32 0
  %16 = load ptr, ptr %15, align 8, !tbaa !19
  %17 = call i32 @ossl_cmp_hdr_set_transactionID(ptr noundef %13, ptr noundef %16)
  %18 = icmp ne i32 %17, 0
  br i1 %18, label %20, label %19

19:                                               ; preds = %12
  store i32 0, ptr %3, align 4
  br label %35

20:                                               ; preds = %12
  %21 = load ptr, ptr %5, align 8, !tbaa !10
  %22 = getelementptr inbounds nuw %struct.ossl_cmp_msg_st, ptr %21, i32 0, i32 0
  %23 = load ptr, ptr %22, align 8, !tbaa !19
  %24 = getelementptr inbounds nuw %struct.ossl_cmp_pkiheader_st, ptr %23, i32 0, i32 4
  %25 = load ptr, ptr %24, align 8, !tbaa !177
  %26 = icmp eq ptr %25, null
  br i1 %26, label %32, label %27

27:                                               ; preds = %20
  %28 = load ptr, ptr %4, align 8, !tbaa !34
  %29 = load ptr, ptr %5, align 8, !tbaa !10
  %30 = call i32 @ossl_cmp_msg_protect(ptr noundef %28, ptr noundef %29)
  %31 = icmp ne i32 %30, 0
  br label %32

32:                                               ; preds = %27, %20
  %33 = phi i1 [ true, %20 ], [ %31, %27 ]
  %34 = zext i1 %33 to i32
  store i32 %34, ptr %3, align 4
  br label %35

35:                                               ; preds = %32, %19, %11
  %36 = load i32, ptr %3, align 4
  ret i32 %36
}