; Function Attrs: nounwind uwtable
define range(i32 0, 2) i32 @OSSL_CMP_MSG_update_transactionID(ptr noundef %0, ptr noundef %1) local_unnamed_addr #0 {
  %3 = icmp eq ptr %0, null
  %4 = icmp eq ptr %1, null
  %or.cond = or i1 %3, %4
  br i1 %or.cond, label %5, label %6

5:                                                ; preds = %2
  tail call void @ERR_new() #7
  tail call void @ERR_set_debug(ptr noundef nonnull @.str, i32 noundef 1179, ptr noundef nonnull @__func__.OSSL_CMP_MSG_update_transactionID) #7
  tail call void (i32, i32, ptr, ...) @ERR_set_error(i32 noundef 58, i32 noundef 103, ptr noundef null) #7
  br label %18

6:                                                ; preds = %2
  %7 = load ptr, ptr %1, align 8, !tbaa !15
  %8 = tail call i32 @ossl_cmp_hdr_set_transactionID(ptr noundef nonnull %0, ptr noundef %7) #7
  %.not = icmp eq i32 %8, 0
  br i1 %.not, label %18, label %9

9:                                                ; preds = %6
  %10 = load ptr, ptr %1, align 8, !tbaa !15
  %11 = getelementptr inbounds nuw i8, ptr %10, i64 32
  %12 = load ptr, ptr %11, align 8, !tbaa !117
  %13 = icmp eq ptr %12, null
  br i1 %13, label %18, label %14

14:                                               ; preds = %9
  %15 = tail call i32 @ossl_cmp_msg_protect(ptr noundef nonnull %0, ptr noundef nonnull %1) #7
  %16 = icmp ne i32 %15, 0
  %17 = zext i1 %16 to i32
  br label %18

18:                                               ; preds = %9, %14, %6, %5
  %.0 = phi i32 [ 0, %5 ], [ 0, %6 ], [ 1, %9 ], [ %17, %14 ]
  ret i32 %.0
}